; Function Attrs: mustprogress nofree norecurse nosync nounwind willreturn memory(read, argmem: readwrite, inaccessiblemem: none) uwtable
define dso_local noundef zeroext i1 @_ZNK4llvm12X86InstrInfo21isCoalescableExtInstrERKNS_12MachineInstrERNS_8RegisterES5_Rj(ptr noundef nonnull readonly align 8 captures(none) dereferenceable(416) %0, ptr noundef nonnull readonly align 8 captures(none) dereferenceable(70) %1, ptr noundef nonnull writeonly align 4 captures(none) dereferenceable(4) %2, ptr noundef nonnull writeonly align 4 captures(none) dereferenceable(4) %3, ptr noundef nonnull writeonly align 4 captures(none) dereferenceable(4) %4) unnamed_addr #5 align 2 {
  %6 = getelementptr inbounds nuw i8, ptr %1, i64 68
  %7 = load i16, ptr %6, align 4
  switch i16 %7, label %33 [
    i16 2670, label %8
    i16 2697, label %8
    i16 2677, label %8
    i16 2702, label %8
    i16 2684, label %8
    i16 2675, label %14
    i16 2701, label %14
    i16 2682, label %14
    i16 2683, label %14
  ]

8:                                                ; preds = %5, %5, %5, %5, %5
  %9 = getelementptr inbounds nuw i8, ptr %0, i64 80
  %10 = load ptr, ptr %9, align 8
  %11 = getelementptr inbounds nuw i8, ptr %10, i64 455
  %12 = load i8, ptr %11, align 1
  %13 = trunc i8 %12 to i1
  br i1 %13, label %14, label %33

14:                                               ; preds = %8, %5, %5, %5, %5
  %15 = getelementptr inbounds nuw i8, ptr %1, i64 32
  %16 = load ptr, ptr %15, align 8
  %17 = load i32, ptr %16, align 8
  %18 = and i32 %17, 1048320
  %.not = icmp eq i32 %18, 0
  br i1 %.not, label %19, label %33

19:                                               ; preds = %14
  %20 = getelementptr inbounds nuw i8, ptr %16, i64 32
  %21 = load i32, ptr %20, align 8
  %22 = and i32 %21, 1048320
  %.not14 = icmp eq i32 %22, 0
  br i1 %.not14, label %23, label %33

23:                                               ; preds = %19
  %24 = getelementptr inbounds nuw i8, ptr %16, i64 36
  %25 = load i32, ptr %24, align 4
  store i32 %25, ptr %2, align 4
  %26 = load ptr, ptr %15, align 8
  %27 = getelementptr inbounds nuw i8, ptr %26, i64 4
  %28 = load i32, ptr %27, align 4
  store i32 %28, ptr %3, align 4
  %29 = load i16, ptr %6, align 4
  switch i16 %29, label %30 [
    i16 2670, label %.sink.split
    i16 2697, label %.sink.split
    i16 2677, label %.sink.split
    i16 2702, label %.sink.split
    i16 2684, label %.sink.split
    i16 2675, label %31
    i16 2701, label %31
    i16 2682, label %31
    i16 2683, label %32
  ]

30:                                               ; preds = %23
  unreachable

31:                                               ; preds = %23, %23, %23
  br label %.sink.split

32:                                               ; preds = %23
  br label %.sink.split

.sink.split:                                      ; preds = %23, %23, %23, %23, %23, %32, %31
  %.sink = phi i32 [ 4, %31 ], [ 6, %32 ], [ 1, %23 ], [ 1, %23 ], [ 1, %23 ], [ 1, %23 ], [ 1, %23 ]
  store i32 %.sink, ptr %4, align 4
  br label %33

33:                                               ; preds = %.sink.split, %5, %14, %19, %8
  %.0 = phi i1 [ false, %8 ], [ false, %19 ], [ false, %14 ], [ false, %5 ], [ true, %.sink.split ]
  ret i1 %.0
}